target datalayout = "e-m:e-p270:32:32-p271:32:32-p272:64:64-i64:64-i128:128-f80:128-n8:16:32:64-S128"
target triple = "x86_64-pc-linux-gnu"

%struct.DdManager = type { %struct.DdNode, ptr, ptr, ptr, ptr, ptr, ptr, ptr, i32, i32, double, double, double, i32, i32, i32, i32, i32, i32, ptr, ptr, %struct.DdSubtable, i32, i32, i32, i32, i32, i32, i32, double, i32, i32, i32, ptr, i64, double, i32, ptr, ptr, ptr, ptr, ptr, ptr, ptr, i32, ptr, ptr, ptr, ptr, ptr, ptr, i32, i32, i32, double, i32, i32, i32, i32, double, double, i32, i32, i32, i32, i32, i32, i32, i32, i32, ptr, ptr, i32, i32, i32, i32, i32, i32, ptr, ptr, ptr, ptr, ptr, ptr, ptr, ptr, i32, i64, i64, i64, i32, i64, i64, double, double, double, double, double, double, i32, ptr, ptr, i64 }
%struct.DdNode = type { i32, i32, ptr, %union.anon, i64 }
%union.anon = type { %struct.DdChildren }
%struct.DdChildren = type { ptr, ptr }
%struct.DdSubtable = type { ptr, i32, i32, i32, i32, i32, i32, i32, i32, i32, i32, i32 }

; Function Attrs: nounwind uwtable
define i32 @Cudd_bddVarIsDependent(ptr noundef %0, ptr noundef %1, ptr noundef %2) #0 {
  %4 = alloca i32, align 4
  %5 = alloca ptr, align 8
  %6 = alloca ptr, align 8
  %7 = alloca ptr, align 8
  %8 = alloca ptr, align 8
  %9 = alloca ptr, align 8
  %10 = alloca ptr, align 8
  %11 = alloca ptr, align 8
  %12 = alloca ptr, align 8
  %13 = alloca i32, align 4
  %14 = alloca i32, align 4
  %15 = alloca ptr, align 8
  %16 = alloca i32, align 4
  %17 = alloca i32, align 4
  store ptr %0, ptr %5, align 8, !tbaa !3
  store ptr %1, ptr %6, align 8, !tbaa !8
  store ptr %2, ptr %7, align 8, !tbaa !8
  call void @llvm.lifetime.start.p0(i64 8, ptr %8) #4
  call void @llvm.lifetime.start.p0(i64 8, ptr %9) #4
  call void @llvm.lifetime.start.p0(i64 8, ptr %10) #4
  call void @llvm.lifetime.start.p0(i64 8, ptr %11) #4
  call void @llvm.lifetime.start.p0(i64 8, ptr %12) #4
  call void @llvm.lifetime.start.p0(i64 4, ptr %13) #4
  call void @llvm.lifetime.start.p0(i64 4, ptr %14) #4
  call void @llvm.lifetime.start.p0(i64 8, ptr %15) #4
  call void @llvm.lifetime.start.p0(i64 4, ptr %16) #4
  %18 = load ptr, ptr %5, align 8, !tbaa !3
  %19 = getelementptr inbounds nuw %struct.DdManager, ptr %18, i32 0, i32 1
  %20 = load ptr, ptr %19, align 8, !tbaa !31
  %21 = ptrtoint ptr %20 to i64
  %22 = xor i64 %21, 1
  %23 = inttoptr i64 %22 to ptr
  store ptr %23, ptr %10, align 8, !tbaa !8
  %24 = load ptr, ptr %6, align 8, !tbaa !8
  %25 = ptrtoint ptr %24 to i64
  %26 = and i64 %25, -2
  %27 = inttoptr i64 %26 to ptr
  %28 = getelementptr inbounds nuw %struct.DdNode, ptr %27, i32 0, i32 0
  %29 = load i32, ptr %28, align 8, !tbaa !32
  %30 = icmp eq i32 %29, 2147483647
  br i1 %30, label %31, label %36

31:                                               ; preds = %3
  %32 = load ptr, ptr %6, align 8, !tbaa !8
  %33 = load ptr, ptr %10, align 8, !tbaa !8
  %34 = icmp eq ptr %32, %33
  %35 = zext i1 %34 to i32
  store i32 %35, ptr %4, align 4
  store i32 1, ptr %17, align 4
  br label %139

36:                                               ; preds = %3
  %37 = load ptr, ptr %6, align 8, !tbaa !8
  %38 = ptrtoint ptr %37 to i64
  %39 = and i64 %38, -2
  %40 = inttoptr i64 %39 to ptr
  store ptr %40, ptr %8, align 8, !tbaa !8
  %41 = load ptr, ptr %5, align 8, !tbaa !3
  %42 = getelementptr inbounds nuw %struct.DdManager, ptr %41, i32 0, i32 37
  %43 = load ptr, ptr %42, align 8, !tbaa !34
  %44 = load ptr, ptr %8, align 8, !tbaa !8
  %45 = getelementptr inbounds nuw %struct.DdNode, ptr %44, i32 0, i32 0
  %46 = load i32, ptr %45, align 8, !tbaa !32
  %47 = zext i32 %46 to i64
  %48 = getelementptr inbounds nuw i32, ptr %43, i64 %47
  %49 = load i32, ptr %48, align 4, !tbaa !35
  store i32 %49, ptr %13, align 4, !tbaa !35
  %50 = load ptr, ptr %5, align 8, !tbaa !3
  %51 = getelementptr inbounds nuw %struct.DdManager, ptr %50, i32 0, i32 37
  %52 = load ptr, ptr %51, align 8, !tbaa !34
  %53 = load ptr, ptr %7, align 8, !tbaa !8
  %54 = getelementptr inbounds nuw %struct.DdNode, ptr %53, i32 0, i32 0
  %55 = load i32, ptr %54, align 8, !tbaa !32
  %56 = zext i32 %55 to i64
  %57 = getelementptr inbounds nuw i32, ptr %52, i64 %56
  %58 = load i32, ptr %57, align 4, !tbaa !35
  store i32 %58, ptr %14, align 4, !tbaa !35
  %59 = load i32, ptr %13, align 4, !tbaa !35
  %60 = load i32, ptr %14, align 4, !tbaa !35
  %61 = icmp ugt i32 %59, %60
  br i1 %61, label %62, label %63

62:                                               ; preds = %36
  store i32 0, ptr %4, align 4
  store i32 1, ptr %17, align 4
  br label %139

63:                                               ; preds = %36
  store ptr @Cudd_bddVarIsDependent, ptr %15, align 8, !tbaa !44
  %64 = load ptr, ptr %5, align 8, !tbaa !3
  %65 = load ptr, ptr %15, align 8, !tbaa !44
  %66 = load ptr, ptr %6, align 8, !tbaa !8
  %67 = load ptr, ptr %7, align 8, !tbaa !8
  %68 = call ptr @cuddCacheLookup2(ptr noundef %64, ptr noundef %65, ptr noundef %66, ptr noundef %67)
  store ptr %68, ptr %9, align 8, !tbaa !8
  %69 = load ptr, ptr %9, align 8, !tbaa !8
  %70 = icmp ne ptr %69, null
  br i1 %70, label %71, label %76

71:                                               ; preds = %63
  %72 = load ptr, ptr %9, align 8, !tbaa !8
  %73 = load ptr, ptr %10, align 8, !tbaa !8
  %74 = icmp ne ptr %72, %73
  %75 = zext i1 %74 to i32
  store i32 %75, ptr %4, align 4
  store i32 1, ptr %17, align 4
  br label %139

76:                                               ; preds = %63
  %77 = load ptr, ptr %8, align 8, !tbaa !8
  %78 = getelementptr inbounds nuw %struct.DdNode, ptr %77, i32 0, i32 3
  %79 = getelementptr inbounds nuw %struct.DdChildren, ptr %78, i32 0, i32 0
  %80 = load ptr, ptr %79, align 8, !tbaa !33
  %81 = ptrtoint ptr %80 to i64
  %82 = load ptr, ptr %6, align 8, !tbaa !8
  %83 = load ptr, ptr %8, align 8, !tbaa !8
  %84 = icmp ne ptr %82, %83
  %85 = zext i1 %84 to i32
  %86 = sext i32 %85 to i64
  %87 = xor i64 %81, %86
  %88 = inttoptr i64 %87 to ptr
  store ptr %88, ptr %11, align 8, !tbaa !8
  %89 = load ptr, ptr %8, align 8, !tbaa !8
  %90 = getelementptr inbounds nuw %struct.DdNode, ptr %89, i32 0, i32 3
  %91 = getelementptr inbounds nuw %struct.DdChildren, ptr %90, i32 0, i32 1
  %92 = load ptr, ptr %91, align 8, !tbaa !33
  %93 = ptrtoint ptr %92 to i64
  %94 = load ptr, ptr %6, align 8, !tbaa !8
  %95 = load ptr, ptr %8, align 8, !tbaa !8
  %96 = icmp ne ptr %94, %95
  %97 = zext i1 %96 to i32
  %98 = sext i32 %97 to i64
  %99 = xor i64 %93, %98
  %100 = inttoptr i64 %99 to ptr
  store ptr %100, ptr %12, align 8, !tbaa !8
  %101 = load i32, ptr %13, align 4, !tbaa !35
  %102 = load i32, ptr %14, align 4, !tbaa !35
  %103 = icmp eq i32 %101, %102
  br i1 %103, label %104, label %112

104:                                              ; preds = %76
  %105 = load ptr, ptr %5, align 8, !tbaa !3
  %106 = load ptr, ptr %11, align 8, !tbaa !8
  %107 = load ptr, ptr %12, align 8, !tbaa !8
  %108 = ptrtoint ptr %107 to i64
  %109 = xor i64 %108, 1
  %110 = inttoptr i64 %109 to ptr
  %111 = call i32 @Cudd_bddLeq(ptr noundef %105, ptr noundef %106, ptr noundef %110)
  store i32 %111, ptr %16, align 4, !tbaa !35
  br label %127

112:                                              ; preds = %76
  %113 = load ptr, ptr %5, align 8, !tbaa !3
  %114 = load ptr, ptr %11, align 8, !tbaa !8
  %115 = load ptr, ptr %7, align 8, !tbaa !8
  %116 = call i32 @Cudd_bddVarIsDependent(ptr noundef %113, ptr noundef %114, ptr noundef %115)
  %117 = icmp ne i32 %116, 0
  br i1 %117, label %118, label %124

118:                                              ; preds = %112
  %119 = load ptr, ptr %5, align 8, !tbaa !3
  %120 = load ptr, ptr %12, align 8, !tbaa !8
  %121 = load ptr, ptr %7, align 8, !tbaa !8
  %122 = call i32 @Cudd_bddVarIsDependent(ptr noundef %119, ptr noundef %120, ptr noundef %121)
  %123 = icmp ne i32 %122, 0
  br label %124

124:                                              ; preds = %118, %112
  %125 = phi i1 [ false, %112 ], [ %123, %118 ]
  %126 = zext i1 %125 to i32
  store i32 %126, ptr %16, align 4, !tbaa !35
  br label %127

127:                                              ; preds = %124, %104
  %128 = load ptr, ptr %5, align 8, !tbaa !3
  %129 = load ptr, ptr %15, align 8, !tbaa !44
  %130 = load ptr, ptr %6, align 8, !tbaa !8
  %131 = load ptr, ptr %7, align 8, !tbaa !8
  %132 = load ptr, ptr %10, align 8, !tbaa !8
  %133 = ptrtoint ptr %132 to i64
  %134 = load i32, ptr %16, align 4, !tbaa !35
  %135 = sext i32 %134 to i64
  %136 = xor i64 %133, %135
  %137 = inttoptr i64 %136 to ptr
  call void @cuddCacheInsert2(ptr noundef %128, ptr noundef %129, ptr noundef %130, ptr noundef %131, ptr noundef %137)
  %138 = load i32, ptr %16, align 4, !tbaa !35
  store i32 %138, ptr %4, align 4
  store i32 1, ptr %17, align 4
  br label %139

139:                                              ; preds = %127, %71, %62, %31
  call void @llvm.lifetime.end.p0(i64 4, ptr %16) #4
  call void @llvm.lifetime.end.p0(i64 8, ptr %15) #4
  call void @llvm.lifetime.end.p0(i64 4, ptr %14) #4
  call void @llvm.lifetime.end.p0(i64 4, ptr %13) #4
  call void @llvm.lifetime.end.p0(i64 8, ptr %12) #4
  call void @llvm.lifetime.end.p0(i64 8, ptr %11) #4
  call void @llvm.lifetime.end.p0(i64 8, ptr %10) #4
  call void @llvm.lifetime.end.p0(i64 8, ptr %9) #4
  call void @llvm.lifetime.end.p0(i64 8, ptr %8) #4
  %140 = load i32, ptr %4, align 4
  ret i32 %140
}