; Function Attrs: nounwind uwtable
define i32 @Cudd_bddVarIsDependent(ptr noundef %0, ptr noundef %1, ptr noundef %2) #0 {
  %4 = getelementptr inbounds nuw i8, ptr %0, i64 40
  %5 = load ptr, ptr %4, align 8, !tbaa !3
  %6 = ptrtoint ptr %5 to i64
  %7 = xor i64 %6, 1
  %8 = inttoptr i64 %7 to ptr
  %9 = ptrtoint ptr %1 to i64
  %10 = and i64 %9, -2
  %11 = inttoptr i64 %10 to ptr
  %12 = load i32, ptr %11, align 8, !tbaa !24
  %13 = icmp eq i32 %12, 2147483647
  br i1 %13, label %14, label %17

14:                                               ; preds = %3
  %15 = icmp eq ptr %1, %8
  %16 = zext i1 %15 to i32
  br label %61

17:                                               ; preds = %3
  %18 = getelementptr inbounds nuw i8, ptr %0, i64 312
  %19 = load ptr, ptr %18, align 8, !tbaa !31
  %20 = zext i32 %12 to i64
  %21 = getelementptr inbounds nuw i32, ptr %19, i64 %20
  %22 = load i32, ptr %21, align 4, !tbaa !32
  %23 = load i32, ptr %2, align 8, !tbaa !24
  %24 = zext i32 %23 to i64
  %25 = getelementptr inbounds nuw i32, ptr %19, i64 %24
  %26 = load i32, ptr %25, align 4, !tbaa !32
  %27 = icmp ugt i32 %22, %26
  br i1 %27, label %61, label %28

28:                                               ; preds = %17
  %29 = tail call ptr @cuddCacheLookup2(ptr noundef nonnull %0, ptr noundef nonnull @Cudd_bddVarIsDependent, ptr noundef %1, ptr noundef nonnull %2) #4
  %.not = icmp eq ptr %29, null
  br i1 %.not, label %33, label %30

30:                                               ; preds = %28
  %31 = icmp ne ptr %29, %8
  %32 = zext i1 %31 to i32
  br label %61

33:                                               ; preds = %28
  %34 = getelementptr inbounds nuw i8, ptr %11, i64 16
  %35 = load ptr, ptr %34, align 8, !tbaa !25
  %36 = ptrtoint ptr %35 to i64
  %37 = icmp ne ptr %1, %11
  %38 = zext i1 %37 to i64
  %39 = xor i64 %36, %38
  %40 = inttoptr i64 %39 to ptr
  %41 = getelementptr inbounds nuw i8, ptr %11, i64 24
  %42 = load ptr, ptr %41, align 8, !tbaa !25
  %43 = ptrtoint ptr %42 to i64
  %44 = xor i64 %43, %38
  %45 = inttoptr i64 %44 to ptr
  %46 = icmp eq i32 %22, %26
  br i1 %46, label %47, label %51

47:                                               ; preds = %33
  %48 = xor i64 %44, 1
  %49 = inttoptr i64 %48 to ptr
  %50 = tail call i32 @Cudd_bddLeq(ptr noundef nonnull %0, ptr noundef %40, ptr noundef %49) #4
  br label %57

51:                                               ; preds = %33
  %52 = tail call i32 @Cudd_bddVarIsDependent(ptr noundef nonnull %0, ptr noundef %40, ptr noundef nonnull %2)
  %.not47 = icmp eq i32 %52, 0
  br i1 %.not47, label %57, label %53

53:                                               ; preds = %51
  %54 = tail call i32 @Cudd_bddVarIsDependent(ptr noundef nonnull %0, ptr noundef %45, ptr noundef nonnull %2)
  %55 = icmp ne i32 %54, 0
  %56 = zext i1 %55 to i32
  br label %57

57:                                               ; preds = %51, %53, %47
  %.0 = phi i32 [ %50, %47 ], [ 0, %51 ], [ %56, %53 ]
  %58 = sext i32 %.0 to i64
  %59 = xor i64 %7, %58
  %60 = inttoptr i64 %59 to ptr
  tail call void @cuddCacheInsert2(ptr noundef nonnull %0, ptr noundef nonnull @Cudd_bddVarIsDependent, ptr noundef %1, ptr noundef nonnull %2, ptr noundef %60) #4
  br label %61

61:                                               ; preds = %17, %57, %30, %14
  %.042 = phi i32 [ %16, %14 ], [ %32, %30 ], [ %.0, %57 ], [ 0, %17 ]
  ret i32 %.042
}